target datalayout = "e-m:e-p270:32:32-p271:32:32-p272:64:64-i64:64-i128:128-f80:128-n8:16:32:64-S128"
target triple = "x86_64-pc-linux-gnu"

%"class.std::chrono::time_point" = type { %"class.std::chrono::duration.2" }
%"class.std::chrono::duration.2" = type { i64 }

@stderr = external global ptr, align 8
@_ZN6googleL13fatal_messageE = internal global [256 x i8] zeroinitializer, align 16
@_ZN3fLB17FLAGS_logtostderrE = external global i8, align 1
@_ZN6googleL10fatal_timeE = internal global %"class.std::chrono::time_point" zeroinitializer, align 8

; Function Attrs: mustprogress uwtable
define internal void @_ZN6googleL13WriteToStderrEPKcm(ptr noundef %0, i64 noundef %1) #0 {
  %3 = alloca ptr, align 8
  %4 = alloca i64, align 8
  store ptr %0, ptr %3, align 8, !tbaa !9
  store i64 %1, ptr %4, align 8, !tbaa !13
  %5 = load ptr, ptr %3, align 8, !tbaa !9
  %6 = load i64, ptr %4, align 8, !tbaa !13
  %7 = load ptr, ptr @stderr, align 8, !tbaa !187
  %8 = call i64 @fwrite(ptr noundef %5, i64 noundef %6, i64 noundef 1, ptr noundef %7)
  ret void
}

; Function Attrs: mustprogress uwtable
define void @_ZN6google19ReprintFatalMessageEv() #0 {
  %1 = alloca i64, align 8
  %2 = load i8, ptr @_ZN6googleL13fatal_messageE, align 16, !tbaa !77
  %3 = icmp ne i8 %2, 0
  br i1 %3, label %4, label %12

4:                                                ; preds = %0
  call void @llvm.lifetime.start.p0(i64 8, ptr %1) #5
  %5 = call i64 @strlen(ptr noundef @_ZN6googleL13fatal_messageE) #21
  store i64 %5, ptr %1, align 8, !tbaa !13
  %6 = load i8, ptr @_ZN3fLB17FLAGS_logtostderrE, align 1, !tbaa !76, !range !78, !noundef !79
  %7 = trunc i8 %6 to i1
  br i1 %7, label %10, label %8

8:                                                ; preds = %4
  %9 = load i64, ptr %1, align 8, !tbaa !13
  call void @_ZN6googleL13WriteToStderrEPKcm(ptr noundef @_ZN6googleL13fatal_messageE, i64 noundef %9)
  br label %10

10:                                               ; preds = %8, %4
  %11 = load i64, ptr %1, align 8, !tbaa !13
  call void @_ZN6google14LogDestination16LogToAllLogfilesENS_11LogSeverityERKNSt6chrono10time_pointINS2_3_V212system_clockENS2_8durationIlSt5ratioILl1ELl1000000000EEEEEEPKcm(i32 noundef 2, ptr noundef nonnull align 8 dereferenceable(8) @_ZN6googleL10fatal_timeE, ptr noundef @_ZN6googleL13fatal_messageE, i64 noundef %11)
  call void @llvm.lifetime.end.p0(i64 8, ptr %1) #5
  br label %12

12:                                               ; preds = %10, %0
  ret void
}