; Function Attrs: mustprogress uwtable
define void @_ZN6google19ReprintFatalMessageEv() local_unnamed_addr #0 {
  %1 = load i8, ptr @_ZN6googleL13fatal_messageE, align 16, !tbaa !51
  %.not = icmp eq i8 %1, 0
  br i1 %.not, label %10, label %2

2:                                                ; preds = %0
  %3 = tail call i64 @strlen(ptr noundef nonnull dereferenceable(1) @_ZN6googleL13fatal_messageE) #57
  %4 = load i8, ptr @_ZN3fLB17FLAGS_logtostderrE, align 1, !tbaa !92, !range !93, !noundef !94
  %5 = trunc nuw i8 %4 to i1
  br i1 %5, label %9, label %6

6:                                                ; preds = %2
  %7 = load ptr, ptr @stderr, align 8, !tbaa !79
  %8 = tail call i64 @fwrite(ptr noundef nonnull @_ZN6googleL13fatal_messageE, i64 noundef %3, i64 noundef 1, ptr noundef %7) #55
  br label %9

9:                                                ; preds = %6, %2
  tail call void @_ZN6google14LogDestination16LogToAllLogfilesENS_11LogSeverityERKNSt6chrono10time_pointINS2_3_V212system_clockENS2_8durationIlSt5ratioILl1ELl1000000000EEEEEEPKcm(i32 noundef 2, ptr noundef nonnull align 8 dereferenceable(8) @_ZN6googleL10fatal_timeE, ptr noundef nonnull @_ZN6googleL13fatal_messageE, i64 noundef %3)
  br label %10

10:                                               ; preds = %9, %0
  ret void
}